; Function Attrs: nofree nounwind uwtable
define void @Acec_PrintAdders(ptr noundef readonly captures(none) %0, ptr noundef readonly captures(none) %1) local_unnamed_addr #2 {
  %3 = getelementptr i8, ptr %0, i64 4
  %.val30 = load i32, ptr %3, align 4
  %4 = icmp sgt i32 %.val30, 0
  br i1 %4, label %.lr.ph32, label %.critedge

.lr.ph32:                                         ; preds = %2
  %5 = getelementptr i8, ptr %0, i64 8
  %6 = getelementptr i8, ptr %1, i64 8
  br label %7

7:                                                ; preds = %.lr.ph32, %.critedge2
  %indvars.iv34 = phi i64 [ 0, %.lr.ph32 ], [ %indvars.iv.next35, %.critedge2 ]
  %.val21 = load ptr, ptr %5, align 8
  %8 = getelementptr inbounds nuw %struct.Vec_Int_t_, ptr %.val21, i64 %indvars.iv34
  %9 = getelementptr i8, ptr %8, i64 4
  %.val23 = load i32, ptr %9, align 4
  %10 = trunc nuw nsw i64 %indvars.iv34 to i32
  %11 = tail call i32 (ptr, ...) @printf(ptr noundef nonnull dereferenceable(1) @.str.15, i32 noundef %10, i32 noundef %.val23)
  %.val2228 = load i32, ptr %9, align 4
  %12 = icmp sgt i32 %.val2228, 0
  br i1 %12, label %.lr.ph, label %.critedge2

.lr.ph:                                           ; preds = %7
  %13 = getelementptr i8, ptr %8, i64 8
  br label %14

14:                                               ; preds = %.lr.ph, %14
  %indvars.iv = phi i64 [ 0, %.lr.ph ], [ %indvars.iv.next, %14 ]
  %.val27 = load ptr, ptr %13, align 8
  %15 = getelementptr inbounds nuw i32, ptr %.val27, i64 %indvars.iv
  %16 = load i32, ptr %15, align 4
  %17 = mul nsw i32 %16, 6
  %.val26 = load ptr, ptr %6, align 8
  %18 = sext i32 %17 to i64
  %19 = getelementptr i32, ptr %.val26, i64 %18
  %20 = getelementptr i8, ptr %19, i64 8
  %21 = load i32, ptr %20, align 4
  %22 = icmp eq i32 %21, 0
  %23 = select i1 %22, ptr @.str.17, ptr @.str.18
  %24 = getelementptr i8, ptr %19, i64 12
  %25 = load i32, ptr %24, align 4
  %26 = getelementptr i8, ptr %19, i64 16
  %27 = load i32, ptr %26, align 4
  %28 = tail call i32 (ptr, ...) @printf(ptr noundef nonnull dereferenceable(1) @.str.16, ptr noundef nonnull %23, i32 noundef %16, i32 noundef %25, i32 noundef %27)
  %indvars.iv.next = add nuw nsw i64 %indvars.iv, 1
  %.val22 = load i32, ptr %9, align 4
  %29 = sext i32 %.val22 to i64
  %30 = icmp slt i64 %indvars.iv.next, %29
  br i1 %30, label %14, label %.critedge2, !llvm.loop !46

.critedge2:                                       ; preds = %14, %7
  %puts = tail call i32 @puts(ptr nonnull dereferenceable(1) @str.6)
  %indvars.iv.next35 = add nuw nsw i64 %indvars.iv34, 1
  %.val = load i32, ptr %3, align 4
  %31 = sext i32 %.val to i64
  %32 = icmp slt i64 %indvars.iv.next35, %31
  br i1 %32, label %7, label %.critedge, !llvm.loop !47

.critedge:                                        ; preds = %.critedge2, %2
  ret void
}